target datalayout = "e-m:e-p270:32:32-p271:32:32-p272:64:64-i64:64-i128:128-f80:128-n8:16:32:64-S128"
target triple = "x86_64-pc-linux-gnu"

%struct.s_x2 = type { i32, i32, ptr, ptr }
%struct.s_x2node = type { ptr, ptr, ptr, ptr }

@x2a = internal global ptr null, align 8

; Function Attrs: nounwind null_pointer_is_valid sspstrong uwtable
define hidden i32 @strhash(ptr noundef %0) #2 {
  %2 = alloca ptr, align 8
  %3 = alloca i32, align 4
  store ptr %0, ptr %2, align 8
  call void @llvm.lifetime.start.p0(i64 4, ptr %3) #18
  store i32 0, ptr %3, align 4
  br label %4

4:                                                ; preds = %8, %1
  %5 = load ptr, ptr %2, align 8
  %6 = load i8, ptr %5, align 1
  %7 = icmp ne i8 %6, 0
  br i1 %7, label %8, label %16

8:                                                ; preds = %4
  %9 = load i32, ptr %3, align 4
  %10 = mul i32 %9, 13
  %11 = load ptr, ptr %2, align 8
  %12 = getelementptr i8, ptr %11, i32 1
  store ptr %12, ptr %2, align 8
  %13 = load i8, ptr %11, align 1
  %14 = sext i8 %13 to i32
  %15 = add i32 %10, %14
  store i32 %15, ptr %3, align 4
  br label %4, !llvm.loop !232

16:                                               ; preds = %4
  %17 = load i32, ptr %3, align 4
  call void @llvm.lifetime.end.p0(i64 4, ptr %3) #18
  ret i32 %17
}

; Function Attrs: nounwind null_pointer_is_valid sspstrong uwtable
define hidden ptr @Symbol_find(ptr noundef %0) #2 {
  %2 = alloca ptr, align 8
  %3 = alloca ptr, align 8
  %4 = alloca i32, align 4
  %5 = alloca ptr, align 8
  %6 = alloca i32, align 4
  store ptr %0, ptr %3, align 8
  call void @llvm.lifetime.start.p0(i64 4, ptr %4) #18
  call void @llvm.lifetime.start.p0(i64 8, ptr %5) #18
  %7 = load ptr, ptr @x2a, align 8
  %8 = icmp eq ptr %7, null
  br i1 %8, label %9, label %10

9:                                                ; preds = %1
  store ptr null, ptr %2, align 8
  store i32 1, ptr %6, align 4
  br label %50

10:                                               ; preds = %1
  %11 = load ptr, ptr %3, align 8
  %12 = call i32 @strhash(ptr noundef %11)
  %13 = load ptr, ptr @x2a, align 8
  %14 = getelementptr inbounds nuw %struct.s_x2, ptr %13, i32 0, i32 0
  %15 = load i32, ptr %14, align 8
  %16 = sub i32 %15, 1
  %17 = and i32 %12, %16
  store i32 %17, ptr %4, align 4
  %18 = load ptr, ptr @x2a, align 8
  %19 = getelementptr inbounds nuw %struct.s_x2, ptr %18, i32 0, i32 3
  %20 = load ptr, ptr %19, align 8
  %21 = load i32, ptr %4, align 4
  %22 = zext i32 %21 to i64
  %23 = getelementptr ptr, ptr %20, i64 %22
  %24 = load ptr, ptr %23, align 8
  store ptr %24, ptr %5, align 8
  br label %25

25:                                               ; preds = %36, %10
  %26 = load ptr, ptr %5, align 8
  %27 = icmp ne ptr %26, null
  br i1 %27, label %28, label %40

28:                                               ; preds = %25
  %29 = load ptr, ptr %5, align 8
  %30 = getelementptr inbounds nuw %struct.s_x2node, ptr %29, i32 0, i32 1
  %31 = load ptr, ptr %30, align 8
  %32 = load ptr, ptr %3, align 8
  %33 = call i32 @strcmp(ptr noundef %31, ptr noundef %32) #22
  %34 = icmp eq i32 %33, 0
  br i1 %34, label %35, label %36

35:                                               ; preds = %28
  br label %40

36:                                               ; preds = %28
  %37 = load ptr, ptr %5, align 8
  %38 = getelementptr inbounds nuw %struct.s_x2node, ptr %37, i32 0, i32 2
  %39 = load ptr, ptr %38, align 8
  store ptr %39, ptr %5, align 8
  br label %25, !llvm.loop !34

40:                                               ; preds = %35, %25
  %41 = load ptr, ptr %5, align 8
  %42 = icmp ne ptr %41, null
  br i1 %42, label %43, label %47

43:                                               ; preds = %40
  %44 = load ptr, ptr %5, align 8
  %45 = getelementptr inbounds nuw %struct.s_x2node, ptr %44, i32 0, i32 0
  %46 = load ptr, ptr %45, align 8
  br label %48

47:                                               ; preds = %40
  br label %48

48:                                               ; preds = %47, %43
  %49 = phi ptr [ %46, %43 ], [ null, %47 ]
  store ptr %49, ptr %2, align 8
  store i32 1, ptr %6, align 4
  br label %50

50:                                               ; preds = %48, %9
  call void @llvm.lifetime.end.p0(i64 8, ptr %5) #18
  call void @llvm.lifetime.end.p0(i64 4, ptr %4) #18
  %51 = load ptr, ptr %2, align 8
  ret ptr %51
}