; Function Attrs: nofree nounwind null_pointer_is_valid sspstrong memory(read, inaccessiblemem: none) uwtable
define hidden ptr @Symbol_find(ptr noundef readonly captures(none) %0) local_unnamed_addr #13 {
  %2 = load ptr, ptr @x2a, align 8
  %3 = icmp eq ptr %2, null
  br i1 %3, label %.critedge, label %4

4:                                                ; preds = %1
  %5 = load i8, ptr %0, align 1
  %.not5.i = icmp eq i8 %5, 0
  br i1 %.not5.i, label %strhash.exit, label %.lr.ph.i

.lr.ph.i:                                         ; preds = %4, %.lr.ph.i
  %6 = phi i8 [ %11, %.lr.ph.i ], [ %5, %4 ]
  %.07.i = phi i32 [ %10, %.lr.ph.i ], [ 0, %4 ]
  %.036.i = phi ptr [ %8, %.lr.ph.i ], [ %0, %4 ]
  %7 = mul i32 %.07.i, 13
  %8 = getelementptr i8, ptr %.036.i, i64 1
  %9 = sext i8 %6 to i32
  %10 = add i32 %7, %9
  %11 = load i8, ptr %8, align 1
  %.not.i = icmp eq i8 %11, 0
  br i1 %.not.i, label %strhash.exit, label %.lr.ph.i, !llvm.loop !33

strhash.exit:                                     ; preds = %.lr.ph.i, %4
  %.0.lcssa.i = phi i32 [ 0, %4 ], [ %10, %.lr.ph.i ]
  %12 = load i32, ptr %2, align 8
  %13 = add i32 %12, -1
  %14 = and i32 %13, %.0.lcssa.i
  %15 = getelementptr inbounds nuw i8, ptr %2, i64 16
  %16 = load ptr, ptr %15, align 8
  %17 = zext i32 %14 to i64
  %18 = getelementptr ptr, ptr %16, i64 %17
  %.010 = load ptr, ptr %18, align 8
  %.not11 = icmp eq ptr %.010, null
  br i1 %.not11, label %.critedge, label %.lr.ph

.lr.ph:                                           ; preds = %strhash.exit, %23
  %.012 = phi ptr [ %.0, %23 ], [ %.010, %strhash.exit ]
  %19 = getelementptr inbounds nuw i8, ptr %.012, i64 8
  %20 = load ptr, ptr %19, align 8
  %21 = tail call i32 @strcmp(ptr noundef %20, ptr noundef %0) #45
  %22 = icmp eq i32 %21, 0
  br i1 %22, label %25, label %23

23:                                               ; preds = %.lr.ph
  %24 = getelementptr inbounds nuw i8, ptr %.012, i64 16
  %.0 = load ptr, ptr %24, align 8
  %.not = icmp eq ptr %.0, null
  br i1 %.not, label %.critedge, label %.lr.ph, !llvm.loop !34

25:                                               ; preds = %.lr.ph
  %26 = load ptr, ptr %.012, align 8
  br label %.critedge

.critedge:                                        ; preds = %23, %strhash.exit, %25, %1
  %.08 = phi ptr [ null, %1 ], [ %26, %25 ], [ null, %strhash.exit ], [ null, %23 ]
  ret ptr %.08
}